Certificate:
    Data:
        Version: 3 (0x2)
        Serial Number: 4096 (0x1000)
        Signature Algorithm: sha256WithRSAEncryption
        Issuer: CN=www.swatCA.com, O=Swat CA LTD., C=US
        Validity
            Not Before: Mar 26 00:50:11 2024 GMT
            Not After : Mar 24 00:50:11 2034 GMT
        Subject: C=US, ST=California , O=cs88 Inc., CN=www.cs88.com
        Subject Public Key Info:
            Public Key Algorithm: rsaEncryption
                RSA Public-Key: (2048 bit)
                Modulus:
                    00:eb:35:54:fe:63:b6:4f:53:f4:71:b6:61:87:e5:
                    e6:cc:b4:df:a5:21:14:f1:0d:25:c8:5b:f8:40:f6:
                    a3:98:e5:5a:89:dc:63:37:14:e6:cb:86:e0:32:70:
                    d4:26:44:84:d0:51:81:45:03:75:f2:37:c7:cf:52:
                    28:75:fa:a9:49:11:97:01:e0:c1:a3:26:ef:9e:77:
                    55:a3:1b:df:d4:ef:e3:bd:10:f8:ef:a7:03:81:40:
                    2a:b7:7f:a1:13:4c:cb:10:31:0e:e3:0d:f6:09:e4:
                    0b:d9:08:79:8e:97:57:1e:4d:a5:2e:d7:f8:01:e4:
                    24:15:d8:e4:bd:cf:7e:c8:5d:ed:56:06:4d:fb:53:
                    3c:b5:b8:08:cd:0b:ae:35:e7:06:50:70:b9:d5:4d:
                    2e:b5:d9:a9:1a:88:13:78:26:14:b0:1f:15:5e:2c:
                    f2:d3:bd:15:c6:07:73:11:27:59:32:33:a4:c8:cf:
                    97:d2:96:d9:67:6a:e4:dd:ad:55:f3:0b:7e:60:3e:
                    a8:8f:e0:7c:bf:2b:d0:47:cf:db:5b:a6:9b:84:ab:
                    64:a1:ae:fd:4e:11:b1:ae:e6:43:02:7d:c1:64:fd:
                    1a:91:03:d6:4c:b0:52:9e:11:86:e5:3e:92:ef:67:
                    76:da:5c:f9:55:19:2f:f5:2a:0b:59:2b:e7:f1:87:
                    36:c7
                Exponent: 65537 (0x10001)
        X509v3 extensions:
            X509v3 Basic Constraints: 
                CA:FALSE
            Netscape Comment: 
                OpenSSL Generated Certificate
            X509v3 Subject Key Identifier: 
                38:D9:6F:B2:EA:BB:BF:1E:70:D1:0B:4A:E5:BE:7A:4D:A8:BB:A4:77
            X509v3 Authority Key Identifier: 
                keyid:F3:CE:D0:B8:04:85:72:7D:73:94:C6:DA:E2:54:73:A0:E1:3D:9F:5C

    Signature Algorithm: sha256WithRSAEncryption
         c4:4e:66:ac:1a:31:bf:1b:b7:1f:46:e6:03:28:68:aa:cf:ec:
         b7:ea:fa:df:86:f4:51:84:13:23:7e:b6:0c:5f:a2:87:24:84:
         6c:bd:b0:37:77:d6:61:95:47:bc:6f:86:20:4f:f6:c8:12:bf:
         f7:03:df:80:30:fd:54:2c:0f:31:fd:b2:fc:55:8c:b4:a3:73:
         91:0d:d5:81:91:71:4c:11:db:f2:29:33:52:6d:f8:78:57:8d:
         71:f8:3c:4e:ac:90:23:3e:97:79:55:12:43:5f:dc:9c:13:d8:
         7b:3e:fb:a0:e3:17:d9:63:51:80:0b:2b:70:1e:ba:7d:12:00:
         40:14:e9:a9:83:8a:59:20:cd:b9:b4:8c:39:24:71:4d:ff:c3:
         10:c8:28:a4:4a:61:68:5d:01:47:db:be:75:af:84:ae:46:d4:
         20:77:f8:30:12:03:a6:12:04:5a:27:3a:62:75:cb:5f:b2:82:
         98:39:73:79:0c:33:95:aa:d2:78:49:2a:39:11:9b:a5:a5:8e:
         91:f2:fe:8e:9a:3a:79:ca:98:27:04:b2:50:41:98:3a:1c:a8:
         5b:be:cf:df:94:da:e0:c9:42:29:a3:47:0d:1b:30:48:60:33:
         4e:a2:e8:d3:40:e6:fc:65:7d:0a:7f:24:3a:a4:0a:66:bd:fb:
         bb:36:a8:36:59:26:bd:b5:07:bf:ef:43:3b:7f:39:bc:9f:18:
         e1:79:65:fb:74:dd:bd:de:07:d8:ea:48:57:99:29:d7:8c:c1:
         58:d7:e5:ce:36:86:5a:f8:01:55:01:fb:8c:f3:fe:5f:ca:c0:
         72:1e:94:09:a6:1e:a1:4e:c4:20:c9:20:ec:c4:8b:8b:59:08:
         ca:4b:2e:71:50:c9:25:2e:bd:47:e7:05:08:a2:f2:a0:15:33:
         25:f6:b4:0f:99:38:bf:32:33:ad:f8:3d:72:00:8a:a0:3f:2e:
         f0:10:ec:85:a0:f1:c3:0c:7f:3b:75:1e:fd:3d:02:5a:7f:e8:
         cc:15:2d:74:61:32:79:2e:53:54:7a:e2:24:6c:31:3a:f8:f9:
         f8:9e:16:b8:47:2c:50:ca:ac:73:4d:10:bd:ba:7e:82:18:09:
         d8:ba:3f:71:d5:4c:14:36:1e:8e:0c:5f:29:8e:e4:0f:09:c9:
         90:f4:a3:ce:75:e5:fd:af:79:a4:23:9a:d2:68:71:23:39:48:
         8d:0f:bf:1e:68:3b:f0:6c:a0:8f:5f:c4:a3:1e:cf:5b:c6:b4:
         df:16:6b:4f:7d:9f:3b:e1:6c:63:22:47:d5:74:a6:28:63:d5:
         22:0b:03:e1:a6:9e:a8:19:95:10:56:42:b4:90:a6:7e:ec:da:
         0b:fb:5f:0e:5d:77:d4:f4
-----BEGIN CERTIFICATE-----
MIIEgjCCAmqgAwIBAgICEAAwDQYJKoZIhvcNAQELBQAwPTEXMBUGA1UEAwwOd3d3
LnN3YXRDQS5jb20xFTATBgNVBAoMDFN3YXQgQ0EgTFRELjELMAkGA1UEBhMCVVMw
HhcNMjQwMzI2MDA1MDExWhcNMzQwMzI0MDA1MDExWjBOMQswCQYDVQQGEwJVUzEU
MBIGA1UECAwLQ2FsaWZvcm5pYSAxEjAQBgNVBAoMCWNzODggSW5jLjEVMBMGA1UE
AwwMd3d3LmNzODguY29tMIIBIjANBgkqhkiG9w0BAQEFAAOCAQ8AMIIBCgKCAQEA
6zVU/mO2T1P0cbZhh+XmzLTfpSEU8Q0lyFv4QPajmOVaidxjNxTmy4bgMnDUJkSE
0FGBRQN18jfHz1IodfqpSRGXAeDBoybvnndVoxvf1O/jvRD476cDgUAqt3+hE0zL
EDEO4w32CeQL2Qh5jpdXHk2lLtf4AeQkFdjkvc9+yF3tVgZN+1M8tbgIzQuuNecG
UHC51U0utdmpGogTeCYUsB8VXizy070VxgdzESdZMjOkyM+X0pbZZ2rk3a1V8wt+
YD6oj+B8vyvQR8/bW6abhKtkoa79ThGxruZDAn3BZP0akQPWTLBSnhGG5T6S72d2
2lz5VRkv9SoLWSvn8Yc2xwIDAQABo3sweTAJBgNVHRMEAjAAMCwGCWCGSAGG+EIB
DQQfFh1PcGVuU1NMIEdlbmVyYXRlZCBDZXJ0aWZpY2F0ZTAdBgNVHQ4EFgQUONlv
suq7vx5w0QtK5b56Tai7pHcwHwYDVR0jBBgwFoAU887QuASFcn1zlMba4lRzoOE9
n1wwDQYJKoZIhvcNAQELBQADggIBAMROZqwaMb8btx9G5gMoaKrP7Lfq+t+G9FGE
EyN+tgxfoockhGy9sDd31mGVR7xvhiBP9sgSv/cD34Aw/VQsDzH9svxVjLSjc5EN
1YGRcUwR2/IpM1Jt+HhXjXH4PE6skCM+l3lVEkNf3JwT2Hs++6DjF9ljUYALK3Ae
un0SAEAU6amDilkgzbm0jDkkcU3/wxDIKKRKYWhdAUfbvnWvhK5G1CB3+DASA6YS
BFonOmJ1y1+ygpg5c3kMM5Wq0nhJKjkRm6WljpHy/o6aOnnKmCcEslBBmDocqFu+
z9+U2uDJQimjRw0bMEhgM06i6NNA5vxlfQp/JDqkCma9+7s2qDZZJr21B7/vQzt/
ObyfGOF5Zft03b3eB9jqSFeZKdeMwVjX5c42hlr4AVUB+4zz/l/KwHIelAmmHqFO
xCDJIOzEi4tZCMpLLnFQySUuvUfnBQii8qAVMyX2tA+ZOL8yM634PXIAiqA/LvAQ
7IWg8cMMfzt1Hv09Alp/6MwVLXRhMnkuU1R64iRsMTr4+fieFrhHLFDKrHNNEL26
foIYCdi6P3HVTBQ2Ho4MXymO5A8JyZD0o8515f2veaQjmtJocSM5SI0Pvx5oO/Bs
oI9fxKMez1vGtN8Wa099nzvhbGMiR9V0pihj1SILA+GmnqgZlRBWQrSQpn7s2gv7
Xw5dd9T0
-----END CERTIFICATE-----
