Certificate:
    Data:
        Version: 3 (0x2)
        Serial Number: 4097 (0x1001)
        Signature Algorithm: sha256WithRSAEncryption
        Issuer: CN=www.swatCA.com, O=Swat CA LTD., C=US
        Validity
            Not Before: Mar 26 00:51:24 2024 GMT
            Not After : Mar 24 00:51:24 2034 GMT
        Subject: C=US, ST=California , O=cs88 Inc., CN=www.cs88.com
        Subject Public Key Info:
            Public Key Algorithm: rsaEncryption
                RSA Public-Key: (2048 bit)
                Modulus:
                    00:eb:35:54:fe:63:b6:4f:53:f4:71:b6:61:87:e5:
                    e6:cc:b4:df:a5:21:14:f1:0d:25:c8:5b:f8:40:f6:
                    a3:98:e5:5a:89:dc:63:37:14:e6:cb:86:e0:32:70:
                    d4:26:44:84:d0:51:81:45:03:75:f2:37:c7:cf:52:
                    28:75:fa:a9:49:11:97:01:e0:c1:a3:26:ef:9e:77:
                    55:a3:1b:df:d4:ef:e3:bd:10:f8:ef:a7:03:81:40:
                    2a:b7:7f:a1:13:4c:cb:10:31:0e:e3:0d:f6:09:e4:
                    0b:d9:08:79:8e:97:57:1e:4d:a5:2e:d7:f8:01:e4:
                    24:15:d8:e4:bd:cf:7e:c8:5d:ed:56:06:4d:fb:53:
                    3c:b5:b8:08:cd:0b:ae:35:e7:06:50:70:b9:d5:4d:
                    2e:b5:d9:a9:1a:88:13:78:26:14:b0:1f:15:5e:2c:
                    f2:d3:bd:15:c6:07:73:11:27:59:32:33:a4:c8:cf:
                    97:d2:96:d9:67:6a:e4:dd:ad:55:f3:0b:7e:60:3e:
                    a8:8f:e0:7c:bf:2b:d0:47:cf:db:5b:a6:9b:84:ab:
                    64:a1:ae:fd:4e:11:b1:ae:e6:43:02:7d:c1:64:fd:
                    1a:91:03:d6:4c:b0:52:9e:11:86:e5:3e:92:ef:67:
                    76:da:5c:f9:55:19:2f:f5:2a:0b:59:2b:e7:f1:87:
                    36:c7
                Exponent: 65537 (0x10001)
        X509v3 extensions:
            X509v3 Basic Constraints: 
                CA:FALSE
            Netscape Comment: 
                OpenSSL Generated Certificate
            X509v3 Subject Key Identifier: 
                38:D9:6F:B2:EA:BB:BF:1E:70:D1:0B:4A:E5:BE:7A:4D:A8:BB:A4:77
            X509v3 Authority Key Identifier: 
                keyid:F3:CE:D0:B8:04:85:72:7D:73:94:C6:DA:E2:54:73:A0:E1:3D:9F:5C

    Signature Algorithm: sha256WithRSAEncryption
         b9:fa:01:a2:ed:e9:90:7e:8d:37:4d:9a:bf:46:d7:21:7a:f3:
         88:74:ab:33:cf:38:ac:11:e4:e0:2a:7a:46:74:9d:8a:a4:59:
         0c:3f:26:83:f2:37:49:24:eb:59:27:a1:d0:f0:68:b8:1a:d5:
         80:67:77:d8:32:b9:07:27:1a:01:bf:4a:f1:33:27:98:c3:8f:
         3a:ba:f7:81:e7:f9:81:47:36:60:c2:1c:b6:89:ad:0c:07:ab:
         52:92:99:4e:04:00:75:d1:ac:56:fc:1d:31:f1:e5:5d:fe:19:
         5f:76:52:ae:96:49:f0:fa:9e:70:7b:6e:67:df:99:d9:d8:23:
         b0:02:9f:27:1e:38:b4:48:b9:86:c7:95:fb:9e:e9:15:98:e1:
         91:58:37:c5:c5:16:f7:a0:62:fc:ae:a2:0e:08:07:8c:83:28:
         01:57:3e:13:cd:36:50:be:70:1a:b6:9e:16:6d:b3:27:54:b6:
         c9:d4:01:5c:a5:54:41:70:7f:07:4f:97:d1:e3:44:e3:79:ad:
         6f:77:e5:b0:58:74:06:4f:45:d9:f5:a1:e1:b3:1f:ec:07:22:
         91:b4:ae:f7:af:ad:bd:43:db:0b:38:cc:49:b0:05:68:05:8e:
         9a:6a:b8:0a:53:86:7d:b8:90:c6:fa:4e:a7:f7:d8:dd:52:cd:
         05:7b:13:18:48:d5:97:e4:79:10:22:d3:59:46:e5:b9:7c:0e:
         0e:81:67:56:54:10:7e:e9:aa:60:7a:04:3a:48:e5:e1:f6:b9:
         69:5f:33:65:1c:34:2a:27:ae:28:42:e7:66:79:91:f8:63:fe:
         4f:a6:39:08:5e:1b:38:d2:e6:8c:cf:56:ed:11:b1:85:e1:75:
         e1:0f:95:b3:70:9d:00:cd:e7:19:3a:58:f8:5d:8f:bc:aa:30:
         9f:c9:37:29:1d:9f:00:73:37:09:32:bc:42:17:c0:f7:93:c8:
         75:9f:a9:cb:fd:7e:2c:18:55:f7:99:ca:f2:46:23:54:a5:d6:
         c3:b0:96:0d:65:14:77:cb:3e:83:b6:b6:6f:e3:a1:da:c6:65:
         46:f8:5b:94:46:64:6c:87:48:ef:06:92:3d:a3:ae:e1:1e:5d:
         b4:0e:ea:97:c6:7c:2f:aa:74:c5:ed:e1:73:15:65:e7:3a:e1:
         6d:fe:5b:3f:4e:d0:29:47:10:3d:dc:91:f8:32:b0:cf:a5:07:
         3a:78:fa:3e:96:d1:ad:11:b8:e3:4b:42:b4:52:28:91:37:ad:
         17:46:19:24:d3:ee:35:df:44:7c:72:c1:18:72:1f:20:8e:aa:
         00:35:02:5a:09:8d:cb:bd:61:93:33:48:81:f0:7c:ce:a4:77:
         18:92:a0:21:11:f3:11:17
-----BEGIN CERTIFICATE-----
MIIEgjCCAmqgAwIBAgICEAEwDQYJKoZIhvcNAQELBQAwPTEXMBUGA1UEAwwOd3d3
LnN3YXRDQS5jb20xFTATBgNVBAoMDFN3YXQgQ0EgTFRELjELMAkGA1UEBhMCVVMw
HhcNMjQwMzI2MDA1MTI0WhcNMzQwMzI0MDA1MTI0WjBOMQswCQYDVQQGEwJVUzEU
MBIGA1UECAwLQ2FsaWZvcm5pYSAxEjAQBgNVBAoMCWNzODggSW5jLjEVMBMGA1UE
AwwMd3d3LmNzODguY29tMIIBIjANBgkqhkiG9w0BAQEFAAOCAQ8AMIIBCgKCAQEA
6zVU/mO2T1P0cbZhh+XmzLTfpSEU8Q0lyFv4QPajmOVaidxjNxTmy4bgMnDUJkSE
0FGBRQN18jfHz1IodfqpSRGXAeDBoybvnndVoxvf1O/jvRD476cDgUAqt3+hE0zL
EDEO4w32CeQL2Qh5jpdXHk2lLtf4AeQkFdjkvc9+yF3tVgZN+1M8tbgIzQuuNecG
UHC51U0utdmpGogTeCYUsB8VXizy070VxgdzESdZMjOkyM+X0pbZZ2rk3a1V8wt+
YD6oj+B8vyvQR8/bW6abhKtkoa79ThGxruZDAn3BZP0akQPWTLBSnhGG5T6S72d2
2lz5VRkv9SoLWSvn8Yc2xwIDAQABo3sweTAJBgNVHRMEAjAAMCwGCWCGSAGG+EIB
DQQfFh1PcGVuU1NMIEdlbmVyYXRlZCBDZXJ0aWZpY2F0ZTAdBgNVHQ4EFgQUONlv
suq7vx5w0QtK5b56Tai7pHcwHwYDVR0jBBgwFoAU887QuASFcn1zlMba4lRzoOE9
n1wwDQYJKoZIhvcNAQELBQADggIBALn6AaLt6ZB+jTdNmr9G1yF684h0qzPPOKwR
5OAqekZ0nYqkWQw/JoPyN0kk61knodDwaLga1YBnd9gyuQcnGgG/SvEzJ5jDjzq6
94Hn+YFHNmDCHLaJrQwHq1KSmU4EAHXRrFb8HTHx5V3+GV92Uq6WSfD6nnB7bmff
mdnYI7ACnyceOLRIuYbHlfue6RWY4ZFYN8XFFvegYvyuog4IB4yDKAFXPhPNNlC+
cBq2nhZtsydUtsnUAVylVEFwfwdPl9HjRON5rW935bBYdAZPRdn1oeGzH+wHIpG0
rvevrb1D2ws4zEmwBWgFjppquApThn24kMb6Tqf32N1SzQV7ExhI1ZfkeRAi01lG
5bl8Dg6BZ1ZUEH7pqmB6BDpI5eH2uWlfM2UcNConrihC52Z5kfhj/k+mOQheGzjS
5ozPVu0RsYXhdeEPlbNwnQDN5xk6WPhdj7yqMJ/JNykdnwBzNwkyvEIXwPeTyHWf
qcv9fiwYVfeZyvJGI1Sl1sOwlg1lFHfLPoO2tm/jodrGZUb4W5RGZGyHSO8Gkj2j
ruEeXbQO6pfGfC+qdMXt4XMVZec64W3+Wz9O0ClHED3ckfgysM+lBzp4+j6W0a0R
uONLQrRSKJE3rRdGGSTT7jXfRHxywRhyHyCOqgA1AloJjcu9YZMzSIHwfM6kdxiS
oCER8xEX
-----END CERTIFICATE-----
