Certificate:
    Data:
        Version: 3 (0x2)
        Serial Number: 4098 (0x1002)
        Signature Algorithm: sha256WithRSAEncryption
        Issuer: CN=www.swatCA.com, O=Swat CA LTD., C=US
        Validity
            Not Before: Mar 26 00:52:40 2024 GMT
            Not After : Mar 24 00:52:40 2034 GMT
        Subject: C=US, ST=PA , O=CS 88. , CN=www.cs88.com
        Subject Public Key Info:
            Public Key Algorithm: rsaEncryption
                RSA Public-Key: (2048 bit)
                Modulus:
                    00:ac:87:07:11:f0:8d:e9:69:dc:8a:28:2d:b0:89:
                    27:a2:df:41:99:0b:78:11:1e:5c:45:7b:69:2c:d3:
                    03:ae:01:4a:23:52:a5:12:64:d0:6e:b5:73:67:a6:
                    3d:27:ed:e1:60:de:d2:a6:f3:d2:7c:4e:79:bd:a6:
                    3e:c9:cc:b3:2c:16:b4:29:20:b2:3d:c7:f0:47:47:
                    24:c9:7e:75:52:c7:6f:3a:ba:06:77:10:06:ba:59:
                    ba:c4:98:33:b7:86:f4:b2:4d:80:af:b3:5a:87:12:
                    85:79:e3:e3:35:86:18:b6:bc:50:2a:f5:7e:5c:8a:
                    83:f7:04:6d:3a:94:57:d7:23:f5:fc:19:4e:40:58:
                    b6:0c:e7:ee:b7:0f:c2:98:40:48:b9:4e:99:11:5e:
                    17:57:aa:94:cc:4a:7a:76:5c:0c:ea:40:20:d8:bc:
                    8d:54:93:21:bb:1a:0e:75:2d:f0:bf:b1:36:a8:16:
                    fa:7b:c0:39:3b:f2:4a:05:bd:a4:bf:28:7c:39:b3:
                    46:77:0e:69:48:d4:47:77:ad:51:90:a4:5e:34:61:
                    2f:c1:0d:e8:bb:1f:c3:46:0c:78:ba:69:93:3d:e9:
                    df:e6:f2:fd:74:ce:38:d0:6b:28:32:30:39:b9:73:
                    5d:16:df:3b:2b:a8:9a:f9:33:cc:fe:61:e3:96:53:
                    cb:6f
                Exponent: 65537 (0x10001)
        X509v3 extensions:
            X509v3 Basic Constraints: 
                CA:FALSE
            Netscape Comment: 
                OpenSSL Generated Certificate
            X509v3 Subject Key Identifier: 
                6F:E3:80:E1:AE:34:E1:35:24:AE:91:D6:C9:6F:13:92:9C:47:B4:C2
            X509v3 Authority Key Identifier: 
                keyid:F3:CE:D0:B8:04:85:72:7D:73:94:C6:DA:E2:54:73:A0:E1:3D:9F:5C

    Signature Algorithm: sha256WithRSAEncryption
         40:ce:79:0d:cb:3e:24:32:ca:75:e8:35:81:4b:c2:d0:03:f7:
         24:99:ea:9f:58:0c:7e:5d:26:52:5f:de:49:f5:37:ab:b1:63:
         c5:bd:95:93:e8:28:d2:99:80:c9:2d:15:74:1a:3a:07:45:0e:
         ee:a6:e3:01:c6:91:e8:43:5d:b8:7f:c2:53:05:44:02:02:d1:
         bb:a5:46:ef:db:d7:74:42:82:2c:07:b1:1e:ea:9c:2f:1b:01:
         c9:22:ea:90:6d:73:6f:45:de:23:48:c4:3a:28:53:62:58:b5:
         f5:6a:a1:03:7f:a8:f0:f0:9b:f4:cf:d9:f8:40:1e:6d:21:3a:
         93:b6:10:b7:1b:08:c5:c6:40:6b:1c:f9:65:3a:d5:c5:e0:f7:
         88:87:c5:07:88:67:08:1d:93:9b:0f:23:33:2e:a9:70:12:63:
         cb:e2:bd:73:ef:60:ef:35:e4:3f:e6:03:a5:22:8c:56:a9:c2:
         16:7d:32:e2:d0:1c:94:ff:db:58:e6:25:aa:cc:9b:03:c1:80:
         1b:67:54:94:9b:e5:fa:dd:d5:42:24:19:f0:aa:f8:67:87:9d:
         cd:00:91:7f:0a:31:a1:53:53:17:04:f7:10:9b:ae:7c:68:96:
         74:46:97:56:72:11:f6:03:f0:be:43:ad:43:98:e9:cd:67:f1:
         26:be:c5:f2:3e:4d:77:ed:2d:8d:fc:72:56:26:5b:52:bf:44:
         df:93:38:70:80:3e:e0:52:55:a6:6b:03:69:a6:05:2a:83:5c:
         60:76:3f:63:c2:0d:f2:d2:a7:70:84:e3:a6:a4:fd:d4:10:36:
         c5:4f:e9:e1:66:43:47:a5:9f:59:72:13:37:da:a5:58:a0:21:
         05:c8:85:3b:b0:09:10:7f:23:f3:09:94:0f:e5:3f:53:ff:5d:
         4b:b7:54:4a:e7:5a:6a:0d:49:73:4e:ae:19:c6:e5:8e:62:5f:
         d7:ca:c8:3b:ec:df:71:75:a3:63:21:f1:60:c5:cf:f9:04:c9:
         a0:11:2b:f7:bd:23:6e:8c:3c:50:ef:e5:f7:61:24:d4:07:19:
         40:db:4b:7c:7e:3e:2d:43:2d:8a:6f:7f:4f:db:0e:c4:2e:43:
         74:ca:8f:06:8f:51:24:6a:fe:c3:d1:d1:80:b0:d9:6c:05:58:
         68:94:b6:48:87:33:25:92:7a:2a:07:09:81:10:92:fc:59:08:
         dd:91:04:3f:c7:4c:a9:4e:31:32:33:fa:a5:c2:59:c6:36:48:
         a8:ae:ba:54:88:d8:b2:63:6a:2c:ed:d9:19:ec:d4:c1:68:ab:
         03:f8:b1:bc:02:e2:77:e4:8b:a5:7e:1c:ee:94:98:08:92:52:
         0f:4a:37:32:e1:d1:10:7e
-----BEGIN CERTIFICATE-----
MIIEeDCCAmCgAwIBAgICEAIwDQYJKoZIhvcNAQELBQAwPTEXMBUGA1UEAwwOd3d3
LnN3YXRDQS5jb20xFTATBgNVBAoMDFN3YXQgQ0EgTFRELjELMAkGA1UEBhMCVVMw
HhcNMjQwMzI2MDA1MjQwWhcNMzQwMzI0MDA1MjQwWjBEMQswCQYDVQQGEwJVUzEM
MAoGA1UECAwDUEEgMRAwDgYDVQQKDAdDUyA4OC4gMRUwEwYDVQQDDAx3d3cuY3M4
OC5jb20wggEiMA0GCSqGSIb3DQEBAQUAA4IBDwAwggEKAoIBAQCshwcR8I3padyK
KC2wiSei30GZC3gRHlxFe2ks0wOuAUojUqUSZNButXNnpj0n7eFg3tKm89J8Tnm9
pj7JzLMsFrQpILI9x/BHRyTJfnVSx286ugZ3EAa6WbrEmDO3hvSyTYCvs1qHEoV5
4+M1hhi2vFAq9X5cioP3BG06lFfXI/X8GU5AWLYM5+63D8KYQEi5TpkRXhdXqpTM
Snp2XAzqQCDYvI1UkyG7Gg51LfC/sTaoFvp7wDk78koFvaS/KHw5s0Z3DmlI1Ed3
rVGQpF40YS/BDei7H8NGDHi6aZM96d/m8v10zjjQaygyMDm5c10W3zsrqJr5M8z+
YeOWU8tvAgMBAAGjezB5MAkGA1UdEwQCMAAwLAYJYIZIAYb4QgENBB8WHU9wZW5T
U0wgR2VuZXJhdGVkIENlcnRpZmljYXRlMB0GA1UdDgQWBBRv44DhrjThNSSukdbJ
bxOSnEe0wjAfBgNVHSMEGDAWgBTzztC4BIVyfXOUxtriVHOg4T2fXDANBgkqhkiG
9w0BAQsFAAOCAgEAQM55Dcs+JDLKdeg1gUvC0AP3JJnqn1gMfl0mUl/eSfU3q7Fj
xb2Vk+go0pmAyS0VdBo6B0UO7qbjAcaR6ENduH/CUwVEAgLRu6VG79vXdEKCLAex
HuqcLxsBySLqkG1zb0XeI0jEOihTYli19WqhA3+o8PCb9M/Z+EAebSE6k7YQtxsI
xcZAaxz5ZTrVxeD3iIfFB4hnCB2Tmw8jMy6pcBJjy+K9c+9g7zXkP+YDpSKMVqnC
Fn0y4tAclP/bWOYlqsybA8GAG2dUlJvl+t3VQiQZ8Kr4Z4edzQCRfwoxoVNTFwT3
EJuufGiWdEaXVnIR9gPwvkOtQ5jpzWfxJr7F8j5Nd+0tjfxyViZbUr9E35M4cIA+
4FJVpmsDaaYFKoNcYHY/Y8IN8tKncITjpqT91BA2xU/p4WZDR6WfWXITN9qlWKAh
BciFO7AJEH8j8wmUD+U/U/9dS7dUSudaag1Jc06uGcbljmJf18rIO+zfcXWjYyHx
YMXP+QTJoBEr970jbow8UO/l92Ek1AcZQNtLfH4+LUMtim9/T9sOxC5DdMqPBo9R
JGr+w9HRgLDZbAVYaJS2SIczJZJ6KgcJgRCS/FkI3ZEEP8dMqU4xMjP6pcJZxjZI
qK66VIjYsmNqLO3ZGezUwWirA/ixvALid+SLpX4c7pSYCJJSD0o3MuHREH4=
-----END CERTIFICATE-----
