Certificate:
    Data:
        Version: 3 (0x2)
        Serial Number: 4099 (0x1003)
        Signature Algorithm: sha256WithRSAEncryption
        Issuer: CN=www.swatCA.com, O=Swat CA LTD., C=US
        Validity
            Not Before: Mar 26 01:03:09 2024 GMT
            Not After : Mar 24 01:03:09 2034 GMT
        Subject: C=US, ST=PA , O=CS 88. , CN=www.cs88.com
        Subject Public Key Info:
            Public Key Algorithm: rsaEncryption
                RSA Public-Key: (2048 bit)
                Modulus:
                    00:ac:87:07:11:f0:8d:e9:69:dc:8a:28:2d:b0:89:
                    27:a2:df:41:99:0b:78:11:1e:5c:45:7b:69:2c:d3:
                    03:ae:01:4a:23:52:a5:12:64:d0:6e:b5:73:67:a6:
                    3d:27:ed:e1:60:de:d2:a6:f3:d2:7c:4e:79:bd:a6:
                    3e:c9:cc:b3:2c:16:b4:29:20:b2:3d:c7:f0:47:47:
                    24:c9:7e:75:52:c7:6f:3a:ba:06:77:10:06:ba:59:
                    ba:c4:98:33:b7:86:f4:b2:4d:80:af:b3:5a:87:12:
                    85:79:e3:e3:35:86:18:b6:bc:50:2a:f5:7e:5c:8a:
                    83:f7:04:6d:3a:94:57:d7:23:f5:fc:19:4e:40:58:
                    b6:0c:e7:ee:b7:0f:c2:98:40:48:b9:4e:99:11:5e:
                    17:57:aa:94:cc:4a:7a:76:5c:0c:ea:40:20:d8:bc:
                    8d:54:93:21:bb:1a:0e:75:2d:f0:bf:b1:36:a8:16:
                    fa:7b:c0:39:3b:f2:4a:05:bd:a4:bf:28:7c:39:b3:
                    46:77:0e:69:48:d4:47:77:ad:51:90:a4:5e:34:61:
                    2f:c1:0d:e8:bb:1f:c3:46:0c:78:ba:69:93:3d:e9:
                    df:e6:f2:fd:74:ce:38:d0:6b:28:32:30:39:b9:73:
                    5d:16:df:3b:2b:a8:9a:f9:33:cc:fe:61:e3:96:53:
                    cb:6f
                Exponent: 65537 (0x10001)
        X509v3 extensions:
            X509v3 Basic Constraints: 
                CA:FALSE
            Netscape Comment: 
                OpenSSL Generated Certificate
            X509v3 Subject Key Identifier: 
                6F:E3:80:E1:AE:34:E1:35:24:AE:91:D6:C9:6F:13:92:9C:47:B4:C2
            X509v3 Authority Key Identifier: 
                keyid:F3:CE:D0:B8:04:85:72:7D:73:94:C6:DA:E2:54:73:A0:E1:3D:9F:5C

            X509v3 Subject Alternative Name: 
                DNS:www.cs88.com, DNS:www.cs88A.com, DNS:www.cs88B.com
    Signature Algorithm: sha256WithRSAEncryption
         b9:05:df:2a:2f:7a:97:04:77:54:d6:48:93:10:de:be:9a:3d:
         59:1b:83:fe:8d:7f:89:d9:65:89:28:f2:58:dc:03:dd:09:4d:
         f4:ed:82:cb:bd:8a:63:06:87:99:56:91:5f:83:49:58:8f:47:
         0e:65:56:a6:d5:0d:ee:49:43:36:d7:75:7f:93:7c:2f:26:38:
         2e:0e:82:bb:ec:71:85:f8:23:f3:4b:bf:58:84:7a:94:36:33:
         9e:c4:3e:d0:52:33:96:f1:0a:54:d8:5c:04:cf:54:35:94:62:
         b0:ca:b7:0f:ef:65:89:fb:38:bc:44:24:60:b1:c9:70:cc:04:
         85:a1:7a:2d:6b:03:30:91:89:3b:5f:3f:a8:ff:f9:71:2d:29:
         d0:68:1b:b0:39:8f:e0:57:4b:0e:d0:1e:ce:c2:62:13:1e:4e:
         92:35:6b:d7:29:fc:80:9c:3f:b6:82:69:52:18:dd:84:29:3f:
         41:78:78:55:61:9d:33:c9:03:1e:dd:ed:df:a7:b7:8e:db:65:
         37:72:31:94:76:45:09:e3:de:89:57:91:18:a4:3b:99:23:64:
         2c:de:35:b3:01:5d:e7:0f:77:c9:ff:12:6d:e0:5a:71:33:75:
         8f:df:3b:f1:67:8e:fd:a1:fc:ec:ab:26:63:7c:6d:07:0c:88:
         b9:5d:50:87:cd:86:a4:28:a8:c7:5d:8c:9d:cd:c9:35:9c:e9:
         bf:2c:fb:34:5f:25:aa:47:6e:c0:38:93:86:43:67:9c:88:f7:
         3b:ee:98:03:d8:1e:58:28:2a:72:7a:b7:c9:5b:13:39:1c:9e:
         f7:f6:ad:44:d2:55:94:ea:9f:57:5f:bb:60:58:c0:ad:ad:83:
         9c:4c:5a:c1:73:bf:c8:fd:a0:12:ae:29:62:b4:69:2d:48:68:
         e5:3c:58:02:e9:9c:07:29:08:ed:b6:35:b6:7f:04:5d:ac:77:
         77:60:33:97:a8:e9:39:5d:3e:24:87:8c:06:3a:92:e7:f2:68:
         a6:60:47:95:47:cb:54:04:bc:6c:95:b0:f2:9d:70:86:c7:79:
         1f:f6:e6:c0:aa:a2:2d:79:38:a3:c8:ec:85:85:dd:c7:62:e4:
         bd:bd:1f:48:98:03:0f:43:68:12:b1:19:c9:21:4b:49:83:d0:
         3a:05:74:13:b9:a2:bb:7e:74:c2:56:ab:c1:58:cf:95:cd:98:
         9c:95:58:fa:62:c9:75:5d:01:55:90:81:6f:0a:44:2f:a7:6a:
         f3:62:8c:c6:09:4a:a3:a5:9c:f1:fe:03:3e:31:9b:bb:4d:78:
         3c:23:f7:1e:13:c4:25:1a:81:a3:c5:64:88:37:b2:b8:e6:d9:
         69:8c:57:88:38:22:90:27
-----BEGIN CERTIFICATE-----
MIIEsTCCApmgAwIBAgICEAMwDQYJKoZIhvcNAQELBQAwPTEXMBUGA1UEAwwOd3d3
LnN3YXRDQS5jb20xFTATBgNVBAoMDFN3YXQgQ0EgTFRELjELMAkGA1UEBhMCVVMw
HhcNMjQwMzI2MDEwMzA5WhcNMzQwMzI0MDEwMzA5WjBEMQswCQYDVQQGEwJVUzEM
MAoGA1UECAwDUEEgMRAwDgYDVQQKDAdDUyA4OC4gMRUwEwYDVQQDDAx3d3cuY3M4
OC5jb20wggEiMA0GCSqGSIb3DQEBAQUAA4IBDwAwggEKAoIBAQCshwcR8I3padyK
KC2wiSei30GZC3gRHlxFe2ks0wOuAUojUqUSZNButXNnpj0n7eFg3tKm89J8Tnm9
pj7JzLMsFrQpILI9x/BHRyTJfnVSx286ugZ3EAa6WbrEmDO3hvSyTYCvs1qHEoV5
4+M1hhi2vFAq9X5cioP3BG06lFfXI/X8GU5AWLYM5+63D8KYQEi5TpkRXhdXqpTM
Snp2XAzqQCDYvI1UkyG7Gg51LfC/sTaoFvp7wDk78koFvaS/KHw5s0Z3DmlI1Ed3
rVGQpF40YS/BDei7H8NGDHi6aZM96d/m8v10zjjQaygyMDm5c10W3zsrqJr5M8z+
YeOWU8tvAgMBAAGjgbMwgbAwCQYDVR0TBAIwADAsBglghkgBhvhCAQ0EHxYdT3Bl
blNTTCBHZW5lcmF0ZWQgQ2VydGlmaWNhdGUwHQYDVR0OBBYEFG/jgOGuNOE1JK6R
1slvE5KcR7TCMB8GA1UdIwQYMBaAFPPO0LgEhXJ9c5TG2uJUc6DhPZ9cMDUGA1Ud
EQQuMCyCDHd3dy5jczg4LmNvbYINd3d3LmNzODhBLmNvbYINd3d3LmNzODhCLmNv
bTANBgkqhkiG9w0BAQsFAAOCAgEAuQXfKi96lwR3VNZIkxDevpo9WRuD/o1/idll
iSjyWNwD3QlN9O2Cy72KYwaHmVaRX4NJWI9HDmVWptUN7klDNtd1f5N8LyY4Lg6C
u+xxhfgj80u/WIR6lDYznsQ+0FIzlvEKVNhcBM9UNZRisMq3D+9lifs4vEQkYLHJ
cMwEhaF6LWsDMJGJO18/qP/5cS0p0GgbsDmP4FdLDtAezsJiEx5OkjVr1yn8gJw/
toJpUhjdhCk/QXh4VWGdM8kDHt3t36e3jttlN3IxlHZFCePeiVeRGKQ7mSNkLN41
swFd5w93yf8SbeBacTN1j9878WeO/aH87KsmY3xtBwyIuV1Qh82GpCiox12Mnc3J
NZzpvyz7NF8lqkduwDiThkNnnIj3O+6YA9geWCgqcnq3yVsTORye9/atRNJVlOqf
V1+7YFjAra2DnExawXO/yP2gEq4pYrRpLUho5TxYAumcBykI7bY1tn8EXax3d2Az
l6jpOV0+JIeMBjqS5/JopmBHlUfLVAS8bJWw8p1whsd5H/bmwKqiLXk4o8jshYXd
x2Lkvb0fSJgDD0NoErEZySFLSYPQOgV0E7miu350wlarwVjPlc2YnJVY+mLJdV0B
VZCBbwpEL6dq82KMxglKo6Wc8f4DPjGbu014PCP3HhPEJRqBo8VkiDeyuObZaYxX
iDgikCc=
-----END CERTIFICATE-----
