Certificate:
    Data:
        Version: 3 (0x2)
        Serial Number: 4100 (0x1004)
        Signature Algorithm: sha256WithRSAEncryption
        Issuer: CN=www.swatCA.com, O=Swat CA LTD., C=US
        Validity
            Not Before: Mar 26 01:08:14 2024 GMT
            Not After : Mar 24 01:08:14 2034 GMT
        Subject: C=US, ST=PA , O=CS 88. , CN=www.cs88.com
        Subject Public Key Info:
            Public Key Algorithm: rsaEncryption
                RSA Public-Key: (2048 bit)
                Modulus:
                    00:c6:e9:e9:de:69:3f:df:8a:98:63:f9:7a:f2:de:
                    38:86:5b:4f:06:5b:7c:5b:06:db:70:da:d1:63:8e:
                    37:7b:ef:bb:84:fb:ff:3c:24:d8:a9:a7:f0:bb:69:
                    79:db:42:2d:85:49:32:c5:ba:ae:eb:62:4b:bf:d0:
                    66:fd:2c:e5:df:77:ac:2a:b2:7f:d6:49:01:bd:0b:
                    63:46:b3:66:40:b8:d9:59:54:9f:fa:79:46:5c:c4:
                    70:c7:9a:0f:e6:ed:24:14:f3:ef:9c:15:4a:ae:90:
                    c8:9d:95:da:95:d7:37:4e:ca:2e:33:1f:3d:ed:b7:
                    25:28:e3:9c:2e:f7:f2:e4:20:40:3d:ba:a0:1b:8e:
                    76:9f:76:1f:43:29:28:39:be:00:f1:96:1c:fd:eb:
                    3d:36:24:ea:59:b5:71:a9:a7:26:e2:40:2c:02:60:
                    fc:ce:e0:a2:0e:6d:9e:78:9f:1d:10:5c:a1:dc:78:
                    c7:d3:33:e6:8d:bc:cf:20:ff:cd:fd:b4:fc:e9:5d:
                    28:b7:a7:a3:74:05:bd:44:43:36:19:d3:2d:e4:4c:
                    8e:fa:43:3a:4a:37:40:fe:4b:63:8d:5a:67:d9:b0:
                    f9:74:94:e0:22:8d:b9:2a:0d:93:82:16:59:11:68:
                    a9:be:1c:15:4f:2a:12:ed:3b:94:49:30:24:30:40:
                    77:65
                Exponent: 65537 (0x10001)
        X509v3 extensions:
            X509v3 Basic Constraints: 
                CA:FALSE
            Netscape Comment: 
                OpenSSL Generated Certificate
            X509v3 Subject Key Identifier: 
                9D:50:7E:C8:6F:58:35:B8:ED:EA:5C:79:83:37:DE:A6:69:41:5E:8E
            X509v3 Authority Key Identifier: 
                keyid:F3:CE:D0:B8:04:85:72:7D:73:94:C6:DA:E2:54:73:A0:E1:3D:9F:5C

            X509v3 Subject Alternative Name: 
                DNS:www.cs88.com, DNS:www.cs88A.com, DNS:www.cs88B.com
    Signature Algorithm: sha256WithRSAEncryption
         36:41:c7:9a:eb:f2:39:7b:3b:4e:f6:9a:05:04:76:8d:f3:c2:
         9f:1d:5f:3c:db:74:da:50:5b:97:56:14:e4:63:c3:6c:21:1b:
         c6:39:c1:91:60:4d:68:42:00:be:e9:98:71:04:8e:ae:36:38:
         3f:59:30:18:bc:25:0a:fe:9d:d0:90:eb:cd:c7:3c:91:e8:2e:
         0c:bc:29:af:38:c6:f1:41:34:9b:83:df:e6:3e:8e:46:33:70:
         ff:d9:1f:d9:43:15:05:06:0d:03:31:70:4e:77:43:47:ac:bb:
         1d:49:5c:e3:38:40:4b:de:bf:cf:88:af:41:96:88:60:d1:b1:
         e5:0c:26:bf:11:84:30:2b:3b:6e:69:b0:a0:6a:8c:15:46:28:
         b6:40:38:d7:7c:4f:fc:be:8b:74:65:d3:65:a8:3b:91:b7:03:
         06:68:f7:8a:6c:17:04:e1:d9:de:e9:2c:93:c2:ec:f2:1e:ad:
         ef:6d:1a:8c:fd:5c:17:10:c5:56:c5:1b:a0:9b:0e:f5:3b:37:
         0d:53:cd:87:f4:22:84:39:08:4c:29:f0:07:a7:db:ab:c2:a6:
         e8:cd:4b:20:5d:cb:cb:20:f1:4e:39:17:6c:b6:d5:f5:a2:c9:
         fa:c8:13:0a:16:c3:e3:4b:a8:06:8c:56:2d:cb:0a:86:7c:eb:
         85:36:a7:ff:d9:57:d1:ee:17:ac:18:b6:46:33:f9:b4:5f:66:
         16:30:cb:50:c3:a3:d7:21:ad:a8:4b:e2:f6:5a:df:83:48:c9:
         04:cd:6a:ce:07:03:85:5e:91:5c:ab:5f:03:7b:5c:9c:c2:ac:
         38:5b:d1:64:a3:de:48:46:46:dd:af:7b:57:84:44:6e:9e:25:
         63:10:0a:54:06:33:8e:9b:7b:82:8a:d1:03:7b:10:95:07:7b:
         db:c2:93:60:1e:9c:ee:93:42:c0:cc:67:b5:96:31:e1:5f:b3:
         60:57:72:d9:56:72:68:e4:4d:92:b1:09:af:40:7b:52:c6:86:
         70:7b:e0:eb:8f:44:6e:05:4a:94:88:ac:95:14:bc:0a:89:57:
         0b:d4:4d:83:ad:0b:78:ca:b4:ad:7c:8d:29:ed:ea:d2:08:df:
         4a:1b:1a:e7:d7:84:dc:22:23:58:bb:c9:57:ef:aa:bf:90:10:
         ee:08:23:72:f5:5e:31:28:12:e9:3b:75:80:3a:bb:da:f0:5c:
         2b:d2:b7:bf:19:48:59:23:6e:ea:b6:8a:d1:ed:4a:4a:cd:48:
         c0:52:e9:c8:0e:af:bd:7a:98:d9:53:4c:bb:96:21:b0:a0:be:
         ce:c0:8a:c4:c8:26:ae:1d:de:1c:e6:89:79:71:cd:8b:6c:3c:
         e9:5c:f7:52:0d:82:9c:db
-----BEGIN CERTIFICATE-----
MIIEsTCCApmgAwIBAgICEAQwDQYJKoZIhvcNAQELBQAwPTEXMBUGA1UEAwwOd3d3
LnN3YXRDQS5jb20xFTATBgNVBAoMDFN3YXQgQ0EgTFRELjELMAkGA1UEBhMCVVMw
HhcNMjQwMzI2MDEwODE0WhcNMzQwMzI0MDEwODE0WjBEMQswCQYDVQQGEwJVUzEM
MAoGA1UECAwDUEEgMRAwDgYDVQQKDAdDUyA4OC4gMRUwEwYDVQQDDAx3d3cuY3M4
OC5jb20wggEiMA0GCSqGSIb3DQEBAQUAA4IBDwAwggEKAoIBAQDG6eneaT/fiphj
+Xry3jiGW08GW3xbBttw2tFjjjd777uE+/88JNipp/C7aXnbQi2FSTLFuq7rYku/
0Gb9LOXfd6wqsn/WSQG9C2NGs2ZAuNlZVJ/6eUZcxHDHmg/m7SQU8++cFUqukMid
ldqV1zdOyi4zHz3ttyUo45wu9/LkIEA9uqAbjnafdh9DKSg5vgDxlhz96z02JOpZ
tXGppybiQCwCYPzO4KIObZ54nx0QXKHceMfTM+aNvM8g/839tPzpXSi3p6N0Bb1E
QzYZ0y3kTI76QzpKN0D+S2ONWmfZsPl0lOAijbkqDZOCFlkRaKm+HBVPKhLtO5RJ
MCQwQHdlAgMBAAGjgbMwgbAwCQYDVR0TBAIwADAsBglghkgBhvhCAQ0EHxYdT3Bl
blNTTCBHZW5lcmF0ZWQgQ2VydGlmaWNhdGUwHQYDVR0OBBYEFJ1QfshvWDW47epc
eYM33qZpQV6OMB8GA1UdIwQYMBaAFPPO0LgEhXJ9c5TG2uJUc6DhPZ9cMDUGA1Ud
EQQuMCyCDHd3dy5jczg4LmNvbYINd3d3LmNzODhBLmNvbYINd3d3LmNzODhCLmNv
bTANBgkqhkiG9w0BAQsFAAOCAgEANkHHmuvyOXs7TvaaBQR2jfPCnx1fPNt02lBb
l1YU5GPDbCEbxjnBkWBNaEIAvumYcQSOrjY4P1kwGLwlCv6d0JDrzcc8keguDLwp
rzjG8UE0m4Pf5j6ORjNw/9kf2UMVBQYNAzFwTndDR6y7HUlc4zhAS96/z4ivQZaI
YNGx5QwmvxGEMCs7bmmwoGqMFUYotkA413xP/L6LdGXTZag7kbcDBmj3imwXBOHZ
3uksk8Ls8h6t720ajP1cFxDFVsUboJsO9Ts3DVPNh/QihDkITCnwB6fbq8Km6M1L
IF3LyyDxTjkXbLbV9aLJ+sgTChbD40uoBoxWLcsKhnzrhTan/9lX0e4XrBi2RjP5
tF9mFjDLUMOj1yGtqEvi9lrfg0jJBM1qzgcDhV6RXKtfA3tcnMKsOFvRZKPeSEZG
3a97V4REbp4lYxAKVAYzjpt7gorRA3sQlQd728KTYB6c7pNCwMxntZYx4V+zYFdy
2VZyaORNkrEJr0B7UsaGcHvg649EbgVKlIislRS8ColXC9RNg60LeMq0rXyNKe3q
0gjfShsa59eE3CIjWLvJV++qv5AQ7ggjcvVeMSgS6Tt1gDq72vBcK9K3vxlIWSNu
6raK0e1KSs1IwFLpyA6vvXqY2VNMu5YhsKC+zsCKxMgmrh3eHOaJeXHNi2w86Vz3
Ug2CnNs=
-----END CERTIFICATE-----
