Certificate:
    Data:
        Version: 3 (0x2)
        Serial Number: 4101 (0x1005)
        Signature Algorithm: sha256WithRSAEncryption
        Issuer: CN=www.swatCA.com, O=Swat CA LTD., C=US
        Validity
            Not Before: Mar 26 02:24:36 2024 GMT
            Not After : Mar 24 02:24:36 2034 GMT
        Subject: C=US, ST=PA , O=CS 88. , CN=www.cs88.com
        Subject Public Key Info:
            Public Key Algorithm: rsaEncryption
                RSA Public-Key: (2048 bit)
                Modulus:
                    00:c6:e9:e9:de:69:3f:df:8a:98:63:f9:7a:f2:de:
                    38:86:5b:4f:06:5b:7c:5b:06:db:70:da:d1:63:8e:
                    37:7b:ef:bb:84:fb:ff:3c:24:d8:a9:a7:f0:bb:69:
                    79:db:42:2d:85:49:32:c5:ba:ae:eb:62:4b:bf:d0:
                    66:fd:2c:e5:df:77:ac:2a:b2:7f:d6:49:01:bd:0b:
                    63:46:b3:66:40:b8:d9:59:54:9f:fa:79:46:5c:c4:
                    70:c7:9a:0f:e6:ed:24:14:f3:ef:9c:15:4a:ae:90:
                    c8:9d:95:da:95:d7:37:4e:ca:2e:33:1f:3d:ed:b7:
                    25:28:e3:9c:2e:f7:f2:e4:20:40:3d:ba:a0:1b:8e:
                    76:9f:76:1f:43:29:28:39:be:00:f1:96:1c:fd:eb:
                    3d:36:24:ea:59:b5:71:a9:a7:26:e2:40:2c:02:60:
                    fc:ce:e0:a2:0e:6d:9e:78:9f:1d:10:5c:a1:dc:78:
                    c7:d3:33:e6:8d:bc:cf:20:ff:cd:fd:b4:fc:e9:5d:
                    28:b7:a7:a3:74:05:bd:44:43:36:19:d3:2d:e4:4c:
                    8e:fa:43:3a:4a:37:40:fe:4b:63:8d:5a:67:d9:b0:
                    f9:74:94:e0:22:8d:b9:2a:0d:93:82:16:59:11:68:
                    a9:be:1c:15:4f:2a:12:ed:3b:94:49:30:24:30:40:
                    77:65
                Exponent: 65537 (0x10001)
        X509v3 extensions:
            X509v3 Basic Constraints: 
                CA:FALSE
            Netscape Comment: 
                OpenSSL Generated Certificate
            X509v3 Subject Key Identifier: 
                9D:50:7E:C8:6F:58:35:B8:ED:EA:5C:79:83:37:DE:A6:69:41:5E:8E
            X509v3 Authority Key Identifier: 
                keyid:F3:CE:D0:B8:04:85:72:7D:73:94:C6:DA:E2:54:73:A0:E1:3D:9F:5C

            X509v3 Subject Alternative Name: 
                DNS:www.cs88.com, DNS:www.cs88A.com, DNS:www.cs88B.com
    Signature Algorithm: sha256WithRSAEncryption
         89:32:80:16:0e:c7:b5:e4:f4:6e:ad:d9:35:9a:27:d7:ea:a4:
         3d:bb:5f:88:09:94:c4:84:68:15:f0:53:70:02:1d:86:c2:38:
         bc:a6:c7:73:1f:3a:3c:0d:2a:15:d6:25:34:84:a7:e1:00:9b:
         1d:d5:bb:a1:52:8a:09:c4:4b:e1:7e:34:87:f7:84:98:87:10:
         eb:8f:bc:ad:6c:e4:dd:ad:ad:19:f9:f7:07:15:38:bf:a5:f1:
         b0:dd:a2:63:32:9e:79:81:f1:4d:e2:68:a2:6c:02:82:f1:b6:
         d7:eb:59:19:26:88:f0:7c:d1:d4:ac:03:b6:59:7c:f4:32:a8:
         33:e0:1a:75:22:78:c6:eb:ca:a3:91:d9:2f:d4:d6:fc:9e:c8:
         b6:38:ba:34:f4:d0:ce:74:3a:0b:01:06:02:c1:1c:82:a5:ae:
         b4:52:df:a1:3a:0b:fd:99:e7:0f:b3:07:66:3f:77:a8:ae:0e:
         4e:90:2f:9d:62:a2:8d:97:ef:4e:84:5f:0a:b2:a7:55:18:da:
         cb:54:a1:a3:1f:8d:f5:0e:04:b3:56:d4:d5:eb:98:94:32:06:
         89:7c:aa:44:c4:fe:5f:6b:e9:20:de:31:4a:a3:d8:28:a4:d9:
         9b:0c:5f:40:03:1d:36:da:b8:2d:2e:b5:80:33:d7:e1:35:dd:
         b6:a9:ad:41:7e:cb:a3:9e:b5:35:d5:18:82:da:2c:37:8b:f1:
         e5:91:5f:22:d1:71:0b:ca:ff:d6:d8:89:fb:a5:4c:85:f7:47:
         93:76:76:ca:d8:5f:87:15:35:03:8e:36:24:b2:d5:e1:46:f4:
         4e:a4:88:26:3d:6d:00:01:c1:28:70:ca:81:10:6a:03:9a:63:
         10:96:98:41:69:af:a4:e7:d9:40:ae:42:22:f6:a8:0f:1f:d5:
         e7:90:00:ab:59:d1:91:33:da:70:8a:bd:74:31:50:e2:29:37:
         6f:77:22:ef:7c:90:d7:21:bb:73:66:66:7e:da:a4:7e:5f:92:
         74:8a:db:53:b6:1e:6c:f5:78:c1:2b:f5:66:62:c1:98:b4:42:
         08:29:4a:ba:a3:8a:29:14:ff:75:5e:f1:43:0b:15:0a:d7:52:
         bc:07:01:2b:23:21:29:90:16:74:00:86:16:93:90:a2:2b:c3:
         d1:16:86:06:91:74:0b:da:2e:9a:45:67:44:4e:05:99:ed:df:
         38:54:68:aa:98:c7:22:e5:44:e6:5b:20:d1:dd:84:f2:63:25:
         69:34:62:2c:3a:1b:c1:20:e3:53:ed:7a:08:b3:81:fc:a5:47:
         e9:21:4e:02:46:91:db:75:19:31:68:bf:30:83:d2:ef:d9:5f:
         c5:4e:5d:57:b8:9b:08:2b
-----BEGIN CERTIFICATE-----
MIIEsTCCApmgAwIBAgICEAUwDQYJKoZIhvcNAQELBQAwPTEXMBUGA1UEAwwOd3d3
LnN3YXRDQS5jb20xFTATBgNVBAoMDFN3YXQgQ0EgTFRELjELMAkGA1UEBhMCVVMw
HhcNMjQwMzI2MDIyNDM2WhcNMzQwMzI0MDIyNDM2WjBEMQswCQYDVQQGEwJVUzEM
MAoGA1UECAwDUEEgMRAwDgYDVQQKDAdDUyA4OC4gMRUwEwYDVQQDDAx3d3cuY3M4
OC5jb20wggEiMA0GCSqGSIb3DQEBAQUAA4IBDwAwggEKAoIBAQDG6eneaT/fiphj
+Xry3jiGW08GW3xbBttw2tFjjjd777uE+/88JNipp/C7aXnbQi2FSTLFuq7rYku/
0Gb9LOXfd6wqsn/WSQG9C2NGs2ZAuNlZVJ/6eUZcxHDHmg/m7SQU8++cFUqukMid
ldqV1zdOyi4zHz3ttyUo45wu9/LkIEA9uqAbjnafdh9DKSg5vgDxlhz96z02JOpZ
tXGppybiQCwCYPzO4KIObZ54nx0QXKHceMfTM+aNvM8g/839tPzpXSi3p6N0Bb1E
QzYZ0y3kTI76QzpKN0D+S2ONWmfZsPl0lOAijbkqDZOCFlkRaKm+HBVPKhLtO5RJ
MCQwQHdlAgMBAAGjgbMwgbAwCQYDVR0TBAIwADAsBglghkgBhvhCAQ0EHxYdT3Bl
blNTTCBHZW5lcmF0ZWQgQ2VydGlmaWNhdGUwHQYDVR0OBBYEFJ1QfshvWDW47epc
eYM33qZpQV6OMB8GA1UdIwQYMBaAFPPO0LgEhXJ9c5TG2uJUc6DhPZ9cMDUGA1Ud
EQQuMCyCDHd3dy5jczg4LmNvbYINd3d3LmNzODhBLmNvbYINd3d3LmNzODhCLmNv
bTANBgkqhkiG9w0BAQsFAAOCAgEAiTKAFg7HteT0bq3ZNZon1+qkPbtfiAmUxIRo
FfBTcAIdhsI4vKbHcx86PA0qFdYlNISn4QCbHdW7oVKKCcRL4X40h/eEmIcQ64+8
rWzk3a2tGfn3BxU4v6XxsN2iYzKeeYHxTeJoomwCgvG21+tZGSaI8HzR1KwDtll8
9DKoM+AadSJ4xuvKo5HZL9TW/J7Itji6NPTQznQ6CwEGAsEcgqWutFLfoToL/Znn
D7MHZj93qK4OTpAvnWKijZfvToRfCrKnVRjay1Shox+N9Q4Es1bU1euYlDIGiXyq
RMT+X2vpIN4xSqPYKKTZmwxfQAMdNtq4LS61gDPX4TXdtqmtQX7Lo561NdUYgtos
N4vx5ZFfItFxC8r/1tiJ+6VMhfdHk3Z2ythfhxU1A442JLLV4Ub0TqSIJj1tAAHB
KHDKgRBqA5pjEJaYQWmvpOfZQK5CIvaoDx/V55AAq1nRkTPacIq9dDFQ4ik3b3ci
73yQ1yG7c2Zmftqkfl+SdIrbU7YebPV4wSv1ZmLBmLRCCClKuqOKKRT/dV7xQwsV
CtdSvAcBKyMhKZAWdACGFpOQoivD0RaGBpF0C9oumkVnRE4Fme3fOFRoqpjHIuVE
5lsg0d2E8mMlaTRiLDobwSDjU+16CLOB/KVH6SFOAkaR23UZMWi/MIPS79lfxU5d
V7ibCCs=
-----END CERTIFICATE-----
