Certificate:
    Data:
        Version: 3 (0x2)
        Serial Number: 4102 (0x1006)
        Signature Algorithm: sha256WithRSAEncryption
        Issuer: CN=www.swatCA.com, O=Swat CA LTD., C=US
        Validity
            Not Before: Mar 26 02:28:16 2024 GMT
            Not After : Mar 24 02:28:16 2034 GMT
        Subject: C=US, ST=PA , O=EXAMPLE. , CN=www.example.com
        Subject Public Key Info:
            Public Key Algorithm: rsaEncryption
                RSA Public-Key: (2048 bit)
                Modulus:
                    00:cc:c5:d7:73:36:a0:b9:49:cc:49:29:fc:8f:c5:
                    ed:a0:c2:96:9f:77:cc:3b:39:01:c4:39:2c:a1:8a:
                    98:d7:5c:7e:2e:0d:8e:d2:cd:2a:65:08:8a:6e:30:
                    2e:44:88:48:9d:df:79:71:1d:c6:83:db:6f:47:db:
                    9a:64:21:94:e3:23:a2:1d:d3:89:ac:7b:1d:fa:34:
                    a4:06:44:e7:0e:12:6c:ac:7e:20:63:1f:7f:61:65:
                    4a:3b:93:4a:f7:e8:5f:3e:e1:e6:f0:46:91:61:22:
                    49:9f:ab:e8:57:a1:92:50:7a:fd:16:63:ab:24:22:
                    a9:c1:89:86:65:6a:45:c8:5f:fa:3f:62:ec:94:83:
                    60:06:3e:49:2b:f4:d6:04:5a:2c:6c:72:41:87:dc:
                    e7:29:6a:21:ae:5e:9f:fd:92:0a:30:62:50:a9:3f:
                    6d:05:d1:50:1d:c1:36:4e:d4:1b:a5:65:00:39:3f:
                    d3:d7:40:7e:9e:86:1c:33:5c:87:76:06:48:47:55:
                    a3:bc:e2:2d:08:98:57:be:b9:ff:8a:97:43:9b:84:
                    8d:ec:bc:21:29:32:30:10:f8:dc:ea:8d:01:72:12:
                    66:2e:ce:25:26:ae:b0:95:24:f7:22:0a:7b:55:75:
                    f6:cf:7e:cc:cc:b2:2b:a5:60:ac:8c:2c:1c:ef:e2:
                    35:77
                Exponent: 65537 (0x10001)
        X509v3 extensions:
            X509v3 Basic Constraints: 
                CA:FALSE
            Netscape Comment: 
                OpenSSL Generated Certificate
            X509v3 Subject Key Identifier: 
                EC:A2:BF:3C:EF:9B:DF:A7:D6:8C:68:9F:CA:8D:57:9A:FD:66:B9:CA
            X509v3 Authority Key Identifier: 
                keyid:F3:CE:D0:B8:04:85:72:7D:73:94:C6:DA:E2:54:73:A0:E1:3D:9F:5C

            X509v3 Subject Alternative Name: 
                DNS:www.example.com
    Signature Algorithm: sha256WithRSAEncryption
         a3:80:c5:69:ef:9e:6c:e6:e5:2b:1b:11:be:80:80:15:e3:5a:
         58:46:09:9a:7b:b1:81:a0:49:a5:55:df:47:19:96:3b:f1:23:
         c3:94:d9:99:af:46:f0:be:a9:58:9b:52:2a:04:96:a1:2a:8f:
         9d:21:95:15:9d:23:e6:d5:68:e8:eb:ad:4e:3c:e3:45:2e:55:
         71:22:04:49:4a:3f:14:14:0a:12:e1:cf:ce:2a:2c:03:5d:1a:
         9f:43:2f:ed:76:2f:30:00:32:53:a2:c0:2f:14:5d:cc:bb:51:
         a6:d8:a6:40:22:36:6a:d8:16:de:a0:ea:ba:d4:0c:bf:52:3b:
         6e:86:05:ec:98:9e:5c:85:45:23:fb:a0:a6:f8:2d:15:2e:46:
         45:3c:88:e4:ce:e6:47:41:73:6f:8f:3c:28:ad:21:af:36:da:
         8f:d6:1a:2f:b2:d7:e4:72:09:f0:74:54:7a:fb:7b:dc:d2:78:
         2b:ab:18:f8:87:89:9c:77:4b:32:dc:b4:6c:e3:31:cf:27:6c:
         f9:88:c1:e4:1f:fc:0c:1f:a9:ec:a1:72:74:37:42:1c:3d:49:
         93:2b:69:99:88:73:24:a8:6a:0c:11:67:77:54:47:bd:56:8b:
         45:82:33:bb:2b:38:4e:e9:08:d0:11:b6:d5:e4:b4:c6:70:4f:
         ef:dd:5f:4e:1b:8b:a6:0f:59:93:63:a5:cd:74:e5:46:08:b9:
         47:d8:2a:0a:8c:67:9a:11:63:42:ec:da:50:02:d3:1d:09:96:
         36:e7:af:fe:43:bb:f2:cc:f3:42:35:29:a1:34:57:3e:2d:bb:
         21:f4:59:77:70:8a:65:c8:4f:2b:ac:c7:1b:3c:4e:07:4f:8e:
         83:c7:0b:28:c0:45:e8:13:7d:10:a8:00:84:9c:af:7b:d2:8a:
         01:22:3b:44:b3:ae:63:5c:ba:c2:ca:74:13:4c:41:7a:95:b8:
         35:bf:f2:f8:41:77:d6:d9:e3:1e:1c:11:11:9b:b7:70:1e:5a:
         a0:02:9e:3c:45:a2:43:30:70:d2:4f:03:ea:d6:18:1b:c9:3d:
         41:2f:b2:ca:45:45:17:23:a2:d6:44:97:fe:cd:94:bc:d9:b8:
         61:b6:d4:4b:16:be:34:c9:4a:40:26:74:43:02:d9:91:fa:f7:
         d6:c8:02:03:7d:7a:a6:91:89:91:bb:56:56:5b:7e:04:b6:a0:
         67:b9:90:d5:06:60:e5:a9:8f:b6:74:a6:a1:81:a9:32:8f:47:
         7e:9b:b4:52:b1:79:42:73:04:90:50:f2:02:43:b8:5b:07:ea:
         a3:d2:2e:df:79:73:15:08:28:2d:7f:95:42:0e:02:b4:a5:f4:
         da:a4:24:6f:14:ce:57:be
-----BEGIN CERTIFICATE-----
MIIEmzCCAoOgAwIBAgICEAYwDQYJKoZIhvcNAQELBQAwPTEXMBUGA1UEAwwOd3d3
LnN3YXRDQS5jb20xFTATBgNVBAoMDFN3YXQgQ0EgTFRELjELMAkGA1UEBhMCVVMw
HhcNMjQwMzI2MDIyODE2WhcNMzQwMzI0MDIyODE2WjBJMQswCQYDVQQGEwJVUzEM
MAoGA1UECAwDUEEgMRIwEAYDVQQKDAlFWEFNUExFLiAxGDAWBgNVBAMMD3d3dy5l
eGFtcGxlLmNvbTCCASIwDQYJKoZIhvcNAQEBBQADggEPADCCAQoCggEBAMzF13M2
oLlJzEkp/I/F7aDClp93zDs5AcQ5LKGKmNdcfi4NjtLNKmUIim4wLkSISJ3feXEd
xoPbb0fbmmQhlOMjoh3Tiax7Hfo0pAZE5w4SbKx+IGMff2FlSjuTSvfoXz7h5vBG
kWEiSZ+r6FehklB6/RZjqyQiqcGJhmVqRchf+j9i7JSDYAY+SSv01gRaLGxyQYfc
5ylqIa5en/2SCjBiUKk/bQXRUB3BNk7UG6VlADk/09dAfp6GHDNch3YGSEdVo7zi
LQiYV765/4qXQ5uEjey8ISkyMBD43OqNAXISZi7OJSausJUk9yIKe1V19s9+zMyy
K6VgrIwsHO/iNXcCAwEAAaOBmDCBlTAJBgNVHRMEAjAAMCwGCWCGSAGG+EIBDQQf
Fh1PcGVuU1NMIEdlbmVyYXRlZCBDZXJ0aWZpY2F0ZTAdBgNVHQ4EFgQU7KK/PO+b
36fWjGifyo1Xmv1mucowHwYDVR0jBBgwFoAU887QuASFcn1zlMba4lRzoOE9n1ww
GgYDVR0RBBMwEYIPd3d3LmV4YW1wbGUuY29tMA0GCSqGSIb3DQEBCwUAA4ICAQCj
gMVp755s5uUrGxG+gIAV41pYRgmae7GBoEmlVd9HGZY78SPDlNmZr0bwvqlYm1Iq
BJahKo+dIZUVnSPm1Wjo661OPONFLlVxIgRJSj8UFAoS4c/OKiwDXRqfQy/tdi8w
ADJTosAvFF3Mu1Gm2KZAIjZq2BbeoOq61Ay/UjtuhgXsmJ5chUUj+6Cm+C0VLkZF
PIjkzuZHQXNvjzworSGvNtqP1hovstfkcgnwdFR6+3vc0ngrqxj4h4mcd0sy3LRs
4zHPJ2z5iMHkH/wMH6nsoXJ0N0IcPUmTK2mZiHMkqGoMEWd3VEe9VotFgjO7KzhO
6QjQEbbV5LTGcE/v3V9OG4umD1mTY6XNdOVGCLlH2CoKjGeaEWNC7NpQAtMdCZY2
56/+Q7vyzPNCNSmhNFc+Lbsh9Fl3cIplyE8rrMcbPE4HT46DxwsowEXoE30QqACE
nK970ooBIjtEs65jXLrCynQTTEF6lbg1v/L4QXfW2eMeHBERm7dwHlqgAp48RaJD
MHDSTwPq1hgbyT1BL7LKRUUXI6LWRJf+zZS82bhhttRLFr40yUpAJnRDAtmR+vfW
yAIDfXqmkYmRu1ZWW34EtqBnuZDVBmDlqY+2dKahgakyj0d+m7RSsXlCcwSQUPIC
Q7hbB+qj0i7feXMVCCgtf5VCDgK0pfTapCRvFM5Xvg==
-----END CERTIFICATE-----
